target datalayout = "e-m:e-p270:32:32-p271:32:32-p272:64:64-i64:64-i128:128-f80:128-n8:16:32:64-S128"
target triple = "x86_64-pc-linux-gnu"

%struct.Elf64_Ehdr = type { [16 x i8], i16, i16, i32, i64, i64, i64, i32, i16, i16, i16, i16, i16, i16 }
%struct.Elf64_Phdr = type { i32, i32, i64, i64, i64, i64, i64, i64 }
%struct.map_info = type { i32, i64, i64, i64, i32, ptr }

@.str.65 = private unnamed_addr constant [76 x i8] c"address conflict @ 0x%lx (existing map size = %ld, size = %ld, flags = %d)\0A\00", align 1
@.str.66 = private unnamed_addr constant [55 x i8] c"overwrote with new address mapping (memsz %ld -> %ld)\0A\00", align 1

; Function Attrs: nounwind uwtable
define internal i32 @read_lib_segments(ptr noundef %0, i32 noundef %1, ptr noundef %2, i64 noundef %3) #0 {
  %5 = alloca i32, align 4
  %6 = alloca ptr, align 8
  %7 = alloca i32, align 4
  %8 = alloca ptr, align 8
  %9 = alloca i64, align 8
  %10 = alloca i32, align 4
  %11 = alloca ptr, align 8
  %12 = alloca ptr, align 8
  %13 = alloca i32, align 4
  %14 = alloca i64, align 8
  %15 = alloca ptr, align 8
  store ptr %0, ptr %6, align 8
  store i32 %1, ptr %7, align 4
  store ptr %2, ptr %8, align 8
  store i64 %3, ptr %9, align 8
  store i32 0, ptr %10, align 4
  store ptr null, ptr %12, align 8
  %16 = call i64 @sysconf(i32 noundef 30) #8
  %17 = trunc i64 %16 to i32
  store i32 %17, ptr %13, align 4
  %18 = load i32, ptr %7, align 4
  %19 = load ptr, ptr %8, align 8
  %20 = call ptr @read_program_header_table(i32 noundef %18, ptr noundef %19)
  store ptr %20, ptr %11, align 8
  %21 = icmp eq ptr %20, null
  br i1 %21, label %22, label %23

22:                                               ; preds = %4
  store i32 0, ptr %5, align 4
  br label %189

23:                                               ; preds = %4
  %24 = load ptr, ptr %11, align 8
  store ptr %24, ptr %12, align 8
  store i32 0, ptr %10, align 4
  br label %25

25:                                               ; preds = %182, %23
  %26 = load i32, ptr %10, align 4
  %27 = load ptr, ptr %8, align 8
  %28 = getelementptr inbounds %struct.Elf64_Ehdr, ptr %27, i32 0, i32 10
  %29 = load i16, ptr %28, align 8
  %30 = zext i16 %29 to i32
  %31 = icmp slt i32 %26, %30
  br i1 %31, label %32, label %185

32:                                               ; preds = %25
  %33 = load ptr, ptr %12, align 8
  %34 = getelementptr inbounds %struct.Elf64_Phdr, ptr %33, i32 0, i32 0
  %35 = load i32, ptr %34, align 8
  %36 = icmp eq i32 %35, 1
  br i1 %36, label %37, label %179

37:                                               ; preds = %32
  %38 = load ptr, ptr %12, align 8
  %39 = getelementptr inbounds %struct.Elf64_Phdr, ptr %38, i32 0, i32 1
  %40 = load i32, ptr %39, align 4
  %41 = and i32 %40, 2
  %42 = icmp ne i32 %41, 0
  br i1 %42, label %179, label %43

43:                                               ; preds = %37
  %44 = load ptr, ptr %12, align 8
  %45 = getelementptr inbounds %struct.Elf64_Phdr, ptr %44, i32 0, i32 5
  %46 = load i64, ptr %45, align 8
  %47 = icmp ne i64 %46, 0
  br i1 %47, label %48, label %179

48:                                               ; preds = %43
  %49 = load ptr, ptr %12, align 8
  %50 = getelementptr inbounds %struct.Elf64_Phdr, ptr %49, i32 0, i32 3
  %51 = load i64, ptr %50, align 8
  %52 = load i64, ptr %9, align 8
  %53 = add i64 %51, %52
  store i64 %53, ptr %14, align 8
  %54 = load ptr, ptr %6, align 8
  %55 = load i64, ptr %14, align 8
  %56 = call ptr @core_lookup(ptr noundef %54, i64 noundef %55)
  store ptr %56, ptr %15, align 8
  %57 = load ptr, ptr %15, align 8
  %58 = icmp eq ptr %57, null
  br i1 %58, label %59, label %76

59:                                               ; preds = %48
  %60 = load ptr, ptr %6, align 8
  %61 = load i32, ptr %7, align 4
  %62 = load ptr, ptr %12, align 8
  %63 = getelementptr inbounds %struct.Elf64_Phdr, ptr %62, i32 0, i32 2
  %64 = load i64, ptr %63, align 8
  %65 = load i64, ptr %14, align 8
  %66 = load ptr, ptr %12, align 8
  %67 = getelementptr inbounds %struct.Elf64_Phdr, ptr %66, i32 0, i32 6
  %68 = load i64, ptr %67, align 8
  %69 = load ptr, ptr %12, align 8
  %70 = getelementptr inbounds %struct.Elf64_Phdr, ptr %69, i32 0, i32 1
  %71 = load i32, ptr %70, align 4
  %72 = call ptr @add_map_info(ptr noundef %60, i32 noundef %61, i64 noundef %64, i64 noundef %65, i64 noundef %68, i32 noundef %71)
  %73 = icmp eq ptr %72, null
  br i1 %73, label %74, label %75

74:                                               ; preds = %59
  br label %187

75:                                               ; preds = %59
  br label %178

76:                                               ; preds = %48
  %77 = load ptr, ptr %12, align 8
  %78 = getelementptr inbounds %struct.Elf64_Phdr, ptr %77, i32 0, i32 1
  %79 = load i32, ptr %78, align 4
  %80 = load ptr, ptr %15, align 8
  %81 = getelementptr inbounds %struct.map_info, ptr %80, i32 0, i32 4
  %82 = load i32, ptr %81, align 8
  %83 = icmp ne i32 %79, %82
  br i1 %83, label %84, label %85

84:                                               ; preds = %76
  br label %182

85:                                               ; preds = %76
  %86 = load ptr, ptr %15, align 8
  %87 = getelementptr inbounds %struct.map_info, ptr %86, i32 0, i32 3
  %88 = load i64, ptr %87, align 8
  %89 = load i32, ptr %13, align 4
  %90 = sext i32 %89 to i64
  %91 = icmp ne i64 %88, %90
  br i1 %91, label %92, label %137

92:                                               ; preds = %85
  %93 = load ptr, ptr %15, align 8
  %94 = getelementptr inbounds %struct.map_info, ptr %93, i32 0, i32 0
  %95 = load i32, ptr %94, align 8
  %96 = load i32, ptr %7, align 4
  %97 = icmp ne i32 %95, %96
  br i1 %97, label %98, label %137

98:                                               ; preds = %92
  %99 = load ptr, ptr %15, align 8
  %100 = getelementptr inbounds %struct.map_info, ptr %99, i32 0, i32 3
  %101 = load i64, ptr %100, align 8
  %102 = load i32, ptr %13, align 4
  %103 = sub nsw i32 %102, 1
  %104 = sext i32 %103 to i64
  %105 = add i64 %101, %104
  %106 = load i32, ptr %13, align 4
  %107 = sext i32 %106 to i64
  %108 = udiv i64 %105, %107
  %109 = load i32, ptr %13, align 4
  %110 = sext i32 %109 to i64
  %111 = mul i64 %108, %110
  %112 = load ptr, ptr %12, align 8
  %113 = getelementptr inbounds %struct.Elf64_Phdr, ptr %112, i32 0, i32 6
  %114 = load i64, ptr %113, align 8
  %115 = load i32, ptr %13, align 4
  %116 = sub nsw i32 %115, 1
  %117 = sext i32 %116 to i64
  %118 = add i64 %114, %117
  %119 = load i32, ptr %13, align 4
  %120 = sext i32 %119 to i64
  %121 = udiv i64 %118, %120
  %122 = load i32, ptr %13, align 4
  %123 = sext i32 %122 to i64
  %124 = mul i64 %121, %123
  %125 = icmp ne i64 %111, %124
  br i1 %125, label %126, label %137

126:                                              ; preds = %98
  %127 = load i64, ptr %14, align 8
  %128 = load ptr, ptr %15, align 8
  %129 = getelementptr inbounds %struct.map_info, ptr %128, i32 0, i32 3
  %130 = load i64, ptr %129, align 8
  %131 = load ptr, ptr %12, align 8
  %132 = getelementptr inbounds %struct.Elf64_Phdr, ptr %131, i32 0, i32 6
  %133 = load i64, ptr %132, align 8
  %134 = load ptr, ptr %12, align 8
  %135 = getelementptr inbounds %struct.Elf64_Phdr, ptr %134, i32 0, i32 1
  %136 = load i32, ptr %135, align 4
  call void (ptr, ...) @print_debug(ptr noundef @.str.65, i64 noundef %127, i64 noundef %130, i64 noundef %133, i32 noundef %136)
  br label %187

137:                                              ; preds = %98, %92, %85
  %138 = load ptr, ptr %15, align 8
  %139 = getelementptr inbounds %struct.map_info, ptr %138, i32 0, i32 3
  %140 = load i64, ptr %139, align 8
  %141 = load ptr, ptr %12, align 8
  %142 = getelementptr inbounds %struct.Elf64_Phdr, ptr %141, i32 0, i32 6
  %143 = load i64, ptr %142, align 8
  %144 = load i32, ptr %13, align 4
  %145 = sub nsw i32 %144, 1
  %146 = sext i32 %145 to i64
  %147 = add i64 %143, %146
  %148 = load i32, ptr %13, align 4
  %149 = sext i32 %148 to i64
  %150 = udiv i64 %147, %149
  %151 = load i32, ptr %13, align 4
  %152 = sext i32 %151 to i64
  %153 = mul i64 %150, %152
  call void (ptr, ...) @print_debug(ptr noundef @.str.66, i64 noundef %140, i64 noundef %153)
  %154 = load i32, ptr %7, align 4
  %155 = load ptr, ptr %15, align 8
  %156 = getelementptr inbounds %struct.map_info, ptr %155, i32 0, i32 0
  store i32 %154, ptr %156, align 8
  %157 = load ptr, ptr %12, align 8
  %158 = getelementptr inbounds %struct.Elf64_Phdr, ptr %157, i32 0, i32 2
  %159 = load i64, ptr %158, align 8
  %160 = load ptr, ptr %15, align 8
  %161 = getelementptr inbounds %struct.map_info, ptr %160, i32 0, i32 1
  store i64 %159, ptr %161, align 8
  %162 = load ptr, ptr %12, align 8
  %163 = getelementptr inbounds %struct.Elf64_Phdr, ptr %162, i32 0, i32 6
  %164 = load i64, ptr %163, align 8
  %165 = load i32, ptr %13, align 4
  %166 = sub nsw i32 %165, 1
  %167 = sext i32 %166 to i64
  %168 = add i64 %164, %167
  %169 = load i32, ptr %13, align 4
  %170 = sext i32 %169 to i64
  %171 = udiv i64 %168, %170
  %172 = load i32, ptr %13, align 4
  %173 = sext i32 %172 to i64
  %174 = mul i64 %171, %173
  %175 = load ptr, ptr %15, align 8
  %176 = getelementptr inbounds %struct.map_info, ptr %175, i32 0, i32 3
  store i64 %174, ptr %176, align 8
  br label %177

177:                                              ; preds = %137
  br label %178

178:                                              ; preds = %177, %75
  br label %179

179:                                              ; preds = %178, %43, %37, %32
  %180 = load ptr, ptr %12, align 8
  %181 = getelementptr inbounds %struct.Elf64_Phdr, ptr %180, i32 1
  store ptr %181, ptr %12, align 8
  br label %182

182:                                              ; preds = %179, %84
  %183 = load i32, ptr %10, align 4
  %184 = add nsw i32 %183, 1
  store i32 %184, ptr %10, align 4
  br label %25, !llvm.loop !18

185:                                              ; preds = %25
  %186 = load ptr, ptr %11, align 8
  call void @free(ptr noundef %186) #8
  store i32 1, ptr %5, align 4
  br label %189

187:                                              ; preds = %126, %74
  %188 = load ptr, ptr %11, align 8
  call void @free(ptr noundef %188) #8
  store i32 0, ptr %5, align 4
  br label %189

189:                                              ; preds = %187, %185, %22
  %190 = load i32, ptr %5, align 4
  ret i32 %190
}