; Function Attrs: nounwind uwtable
define internal fastcc range(i32 0, 2) i32 @read_lib_segments(ptr noundef %0, i32 noundef %1, ptr noundef %2, i64 noundef %3) unnamed_addr #0 {
  %5 = tail call i64 @sysconf(i32 noundef 30) #15
  %6 = tail call ptr @read_program_header_table(i32 noundef %1, ptr noundef %2) #15
  %7 = icmp eq ptr %6, null
  br i1 %7, label %75, label %.preheader

.preheader:                                       ; preds = %4
  %8 = getelementptr inbounds i8, ptr %2, i64 56
  %9 = load i16, ptr %8, align 8
  %.not78 = icmp eq i16 %9, 0
  br i1 %.not78, label %.sink.split, label %.lr.ph

.lr.ph:                                           ; preds = %.preheader
  %sext = shl i64 %5, 32
  %10 = ashr exact i64 %sext, 32
  %sext66 = add i64 %sext, -4294967296
  %11 = ashr exact i64 %sext66, 32
  br label %12

12:                                               ; preds = %.lr.ph, %70
  %.05577 = phi i32 [ 0, %.lr.ph ], [ %71, %70 ]
  %.05676 = phi ptr [ %6, %.lr.ph ], [ %.1, %70 ]
  %13 = load i32, ptr %.05676, align 8
  %14 = icmp eq i32 %13, 1
  br i1 %14, label %15, label %68

15:                                               ; preds = %12
  %16 = getelementptr inbounds i8, ptr %.05676, i64 4
  %17 = load i32, ptr %16, align 4
  %18 = and i32 %17, 2
  %.not = icmp eq i32 %18, 0
  br i1 %.not, label %19, label %68

19:                                               ; preds = %15
  %20 = getelementptr inbounds i8, ptr %.05676, i64 32
  %21 = load i64, ptr %20, align 8
  %.not62 = icmp eq i64 %21, 0
  br i1 %.not62, label %68, label %22

22:                                               ; preds = %19
  %23 = getelementptr inbounds i8, ptr %.05676, i64 16
  %24 = load i64, ptr %23, align 8
  %25 = add i64 %24, %3
  %26 = tail call ptr @core_lookup(ptr noundef %0, i64 noundef %25) #15
  %27 = icmp eq ptr %26, null
  br i1 %27, label %28, label %36

28:                                               ; preds = %22
  %29 = getelementptr inbounds i8, ptr %.05676, i64 8
  %30 = load i64, ptr %29, align 8
  %31 = getelementptr inbounds i8, ptr %.05676, i64 40
  %32 = load i64, ptr %31, align 8
  %33 = load i32, ptr %16, align 4
  %34 = tail call ptr @add_map_info(ptr noundef %0, i32 noundef %1, i64 noundef %30, i64 noundef %25, i64 noundef %32, i32 noundef %33) #15
  %35 = icmp eq ptr %34, null
  br i1 %35, label %.sink.split, label %68

36:                                               ; preds = %22
  %37 = load i32, ptr %16, align 4
  %38 = getelementptr inbounds i8, ptr %26, i64 32
  %39 = load i32, ptr %38, align 8
  %.not63 = icmp eq i32 %37, %39
  br i1 %.not63, label %40, label %70

40:                                               ; preds = %36
  %41 = getelementptr inbounds i8, ptr %26, i64 24
  %42 = load i64, ptr %41, align 8
  %.not64 = icmp eq i64 %42, %10
  br i1 %.not64, label %55, label %43

43:                                               ; preds = %40
  %44 = load i32, ptr %26, align 8
  %.not65 = icmp eq i32 %44, %1
  br i1 %.not65, label %55, label %45

45:                                               ; preds = %43
  %46 = add i64 %42, %11
  %.fr = freeze i64 %46
  %47 = urem i64 %.fr, %10
  %48 = sub nuw i64 %.fr, %47
  %49 = getelementptr inbounds i8, ptr %.05676, i64 40
  %50 = load i64, ptr %49, align 8
  %51 = add i64 %50, %11
  %.fr67 = freeze i64 %51
  %52 = urem i64 %.fr67, %10
  %53 = sub nuw i64 %.fr67, %52
  %.not68 = icmp eq i64 %48, %53
  br i1 %.not68, label %55, label %54

54:                                               ; preds = %45
  tail call void (ptr, ...) @print_debug(ptr noundef nonnull @.str.65, i64 noundef %25, i64 noundef %42, i64 noundef %50, i32 noundef %37) #15
  br label %.sink.split

55:                                               ; preds = %45, %43, %40
  %56 = getelementptr inbounds i8, ptr %.05676, i64 40
  %57 = load i64, ptr %56, align 8
  %58 = add i64 %57, %11
  %.fr70 = freeze i64 %58
  %59 = urem i64 %.fr70, %10
  %60 = sub nuw i64 %.fr70, %59
  tail call void (ptr, ...) @print_debug(ptr noundef nonnull @.str.66, i64 noundef %42, i64 noundef %60) #15
  store i32 %1, ptr %26, align 8
  %61 = getelementptr inbounds i8, ptr %.05676, i64 8
  %62 = load i64, ptr %61, align 8
  %63 = getelementptr inbounds i8, ptr %26, i64 8
  store i64 %62, ptr %63, align 8
  %64 = load i64, ptr %56, align 8
  %65 = add i64 %64, %11
  %.fr71 = freeze i64 %65
  %66 = urem i64 %.fr71, %10
  %67 = sub nuw i64 %.fr71, %66
  store i64 %67, ptr %41, align 8
  br label %68

68:                                               ; preds = %55, %28, %19, %15, %12
  %69 = getelementptr inbounds i8, ptr %.05676, i64 56
  br label %70

70:                                               ; preds = %36, %68
  %.1 = phi ptr [ %69, %68 ], [ %.05676, %36 ]
  %71 = add nuw nsw i32 %.05577, 1
  %72 = load i16, ptr %8, align 8
  %73 = zext i16 %72 to i32
  %74 = icmp ult i32 %71, %73
  br i1 %74, label %12, label %.sink.split, !llvm.loop !18

.sink.split:                                      ; preds = %28, %70, %54, %.preheader
  %.0.ph = phi i32 [ 1, %.preheader ], [ 0, %54 ], [ 1, %70 ], [ 0, %28 ]
  tail call void @free(ptr noundef %6) #15
  br label %75

75:                                               ; preds = %.sink.split, %4
  %.0 = phi i32 [ 0, %4 ], [ %.0.ph, %.sink.split ]
  ret i32 %.0
}